target datalayout = "e-m:e-p270:32:32-p271:32:32-p272:64:64-i64:64-i128:128-f80:128-n8:16:32:64-S128"
target triple = "x86_64-pc-linux-gnu"

%struct.FLAC__StreamMetadata = type { i32, i32, i32, %union.anon }
%union.anon = type { %struct.FLAC__StreamMetadata_CueSheet }
%struct.FLAC__StreamMetadata_CueSheet = type { [129 x i8], i64, i32, i32, ptr }
%struct.FLAC__StreamMetadata_SeekTable = type { i32, ptr }
%struct.FLAC__StreamMetadata_SeekPoint = type { i64, i64, i32 }

@FLAC__STREAM_METADATA_LENGTH_LEN = external constant i32, align 4
@FLAC__STREAM_METADATA_SEEKPOINT_PLACEHOLDER = external constant i64, align 8

; Function Attrs: nounwind sspstrong uwtable
define internal void @seektable_calculate_length_(ptr noundef %0) #0 {
  %2 = alloca ptr, align 8
  store ptr %0, ptr %2, align 8, !tbaa !7
  %3 = load ptr, ptr %2, align 8, !tbaa !7
  %4 = getelementptr inbounds nuw %struct.FLAC__StreamMetadata, ptr %3, i32 0, i32 3
  %5 = getelementptr inbounds nuw %struct.FLAC__StreamMetadata_SeekTable, ptr %4, i32 0, i32 0
  %6 = load i32, ptr %5, align 8, !tbaa !16
  %7 = mul i32 %6, 18
  %8 = load ptr, ptr %2, align 8, !tbaa !7
  %9 = getelementptr inbounds nuw %struct.FLAC__StreamMetadata, ptr %8, i32 0, i32 2
  store i32 %7, ptr %9, align 8, !tbaa !13
  ret void
}

; Function Attrs: nounwind sspstrong uwtable
define internal ptr @seekpoint_array_new_(i32 noundef %0) #0 {
  %2 = alloca i32, align 4
  %3 = alloca ptr, align 8
  %4 = alloca i32, align 4
  store i32 %0, ptr %2, align 4, !tbaa !3
  call void @llvm.lifetime.start.p0(i64 8, ptr %3) #12
  %5 = load i32, ptr %2, align 4, !tbaa !3
  %6 = zext i32 %5 to i64
  %7 = call ptr @safe_malloc_mul_2op_p(i64 noundef %6, i64 noundef 24)
  store ptr %7, ptr %3, align 8, !tbaa !27
  %8 = load ptr, ptr %3, align 8, !tbaa !27
  %9 = icmp ne ptr %8, null
  br i1 %9, label %10, label %36

10:                                               ; preds = %1
  call void @llvm.lifetime.start.p0(i64 4, ptr %4) #12
  store i32 0, ptr %4, align 4, !tbaa !3
  br label %11

11:                                               ; preds = %32, %10
  %12 = load i32, ptr %4, align 4, !tbaa !3
  %13 = load i32, ptr %2, align 4, !tbaa !3
  %14 = icmp ult i32 %12, %13
  br i1 %14, label %15, label %35

15:                                               ; preds = %11
  %16 = load i64, ptr @FLAC__STREAM_METADATA_SEEKPOINT_PLACEHOLDER, align 8, !tbaa !28
  %17 = load ptr, ptr %3, align 8, !tbaa !27
  %18 = load i32, ptr %4, align 4, !tbaa !3
  %19 = zext i32 %18 to i64
  %20 = getelementptr inbounds nuw %struct.FLAC__StreamMetadata_SeekPoint, ptr %17, i64 %19
  %21 = getelementptr inbounds nuw %struct.FLAC__StreamMetadata_SeekPoint, ptr %20, i32 0, i32 0
  store i64 %16, ptr %21, align 8, !tbaa !49
  %22 = load ptr, ptr %3, align 8, !tbaa !27
  %23 = load i32, ptr %4, align 4, !tbaa !3
  %24 = zext i32 %23 to i64
  %25 = getelementptr inbounds nuw %struct.FLAC__StreamMetadata_SeekPoint, ptr %22, i64 %24
  %26 = getelementptr inbounds nuw %struct.FLAC__StreamMetadata_SeekPoint, ptr %25, i32 0, i32 1
  store i64 0, ptr %26, align 8, !tbaa !51
  %27 = load ptr, ptr %3, align 8, !tbaa !27
  %28 = load i32, ptr %4, align 4, !tbaa !3
  %29 = zext i32 %28 to i64
  %30 = getelementptr inbounds nuw %struct.FLAC__StreamMetadata_SeekPoint, ptr %27, i64 %29
  %31 = getelementptr inbounds nuw %struct.FLAC__StreamMetadata_SeekPoint, ptr %30, i32 0, i32 2
  store i32 0, ptr %31, align 8, !tbaa !52
  br label %32

32:                                               ; preds = %15
  %33 = load i32, ptr %4, align 4, !tbaa !3
  %34 = add i32 %33, 1
  store i32 %34, ptr %4, align 4, !tbaa !3
  br label %11, !llvm.loop !85

35:                                               ; preds = %11
  call void @llvm.lifetime.end.p0(i64 4, ptr %4) #12
  br label %36

36:                                               ; preds = %35, %1
  %37 = load ptr, ptr %3, align 8, !tbaa !27
  call void @llvm.lifetime.end.p0(i64 8, ptr %3) #12
  ret ptr %37
}

; Function Attrs: nounwind sspstrong uwtable
define i32 @FLAC__metadata_object_seektable_resize_points(ptr noundef %0, i32 noundef %1) #0 {
  %3 = alloca i32, align 4
  %4 = alloca ptr, align 8
  %5 = alloca i32, align 4
  %6 = alloca i64, align 8
  %7 = alloca i64, align 8
  %8 = alloca i32, align 4
  %9 = alloca ptr, align 8
  %10 = alloca i32, align 4
  store ptr %0, ptr %4, align 8, !tbaa !7
  store i32 %1, ptr %5, align 4, !tbaa !3
  %11 = load i32, ptr %5, align 4, !tbaa !3
  %12 = zext i32 %11 to i64
  %13 = mul i64 %12, 18
  %14 = load i32, ptr @FLAC__STREAM_METADATA_LENGTH_LEN, align 4, !tbaa !3
  %15 = shl i32 1, %14
  %16 = zext i32 %15 to i64
  %17 = icmp uge i64 %13, %16
  br i1 %17, label %18, label %19

18:                                               ; preds = %2
  store i32 0, ptr %3, align 4
  br label %134

19:                                               ; preds = %2
  %20 = load ptr, ptr %4, align 8, !tbaa !7
  %21 = getelementptr inbounds nuw %struct.FLAC__StreamMetadata, ptr %20, i32 0, i32 3
  %22 = getelementptr inbounds nuw %struct.FLAC__StreamMetadata_SeekTable, ptr %21, i32 0, i32 1
  %23 = load ptr, ptr %22, align 8, !tbaa !16
  %24 = icmp eq ptr %23, null
  br i1 %24, label %25, label %39

25:                                               ; preds = %19
  %26 = load i32, ptr %5, align 4, !tbaa !3
  %27 = icmp eq i32 %26, 0
  br i1 %27, label %28, label %29

28:                                               ; preds = %25
  store i32 1, ptr %3, align 4
  br label %134

29:                                               ; preds = %25
  %30 = load i32, ptr %5, align 4, !tbaa !3
  %31 = call ptr @seekpoint_array_new_(i32 noundef %30)
  %32 = load ptr, ptr %4, align 8, !tbaa !7
  %33 = getelementptr inbounds nuw %struct.FLAC__StreamMetadata, ptr %32, i32 0, i32 3
  %34 = getelementptr inbounds nuw %struct.FLAC__StreamMetadata_SeekTable, ptr %33, i32 0, i32 1
  store ptr %31, ptr %34, align 8, !tbaa !16
  %35 = icmp eq ptr %31, null
  br i1 %35, label %36, label %37

36:                                               ; preds = %29
  store i32 0, ptr %3, align 4
  br label %134

37:                                               ; preds = %29
  br label %38

38:                                               ; preds = %37
  br label %128

39:                                               ; preds = %19
  call void @llvm.lifetime.start.p0(i64 8, ptr %6) #12
  %40 = load ptr, ptr %4, align 8, !tbaa !7
  %41 = getelementptr inbounds nuw %struct.FLAC__StreamMetadata, ptr %40, i32 0, i32 3
  %42 = getelementptr inbounds nuw %struct.FLAC__StreamMetadata_SeekTable, ptr %41, i32 0, i32 0
  %43 = load i32, ptr %42, align 8, !tbaa !16
  %44 = zext i32 %43 to i64
  %45 = mul i64 %44, 24
  store i64 %45, ptr %6, align 8, !tbaa !28
  call void @llvm.lifetime.start.p0(i64 8, ptr %7) #12
  %46 = load i32, ptr %5, align 4, !tbaa !3
  %47 = zext i32 %46 to i64
  %48 = mul i64 %47, 24
  store i64 %48, ptr %7, align 8, !tbaa !28
  %49 = load i32, ptr %5, align 4, !tbaa !3
  %50 = zext i32 %49 to i64
  %51 = icmp ugt i64 %50, 178956970
  br i1 %51, label %52, label %53

52:                                               ; preds = %39
  store i32 0, ptr %3, align 4
  store i32 1, ptr %8, align 4
  br label %125

53:                                               ; preds = %39
  %54 = load i64, ptr %7, align 8, !tbaa !28
  %55 = icmp eq i64 %54, 0
  br i1 %55, label %56, label %64

56:                                               ; preds = %53
  %57 = load ptr, ptr %4, align 8, !tbaa !7
  %58 = getelementptr inbounds nuw %struct.FLAC__StreamMetadata, ptr %57, i32 0, i32 3
  %59 = getelementptr inbounds nuw %struct.FLAC__StreamMetadata_SeekTable, ptr %58, i32 0, i32 1
  %60 = load ptr, ptr %59, align 8, !tbaa !16
  call void @free(ptr noundef %60) #12
  %61 = load ptr, ptr %4, align 8, !tbaa !7
  %62 = getelementptr inbounds nuw %struct.FLAC__StreamMetadata, ptr %61, i32 0, i32 3
  %63 = getelementptr inbounds nuw %struct.FLAC__StreamMetadata_SeekTable, ptr %62, i32 0, i32 1
  store ptr null, ptr %63, align 8, !tbaa !16
  br label %81

64:                                               ; preds = %53
  call void @llvm.lifetime.start.p0(i64 8, ptr %9) #12
  %65 = load ptr, ptr %4, align 8, !tbaa !7
  %66 = getelementptr inbounds nuw %struct.FLAC__StreamMetadata, ptr %65, i32 0, i32 3
  %67 = getelementptr inbounds nuw %struct.FLAC__StreamMetadata_SeekTable, ptr %66, i32 0, i32 1
  %68 = load ptr, ptr %67, align 8, !tbaa !16
  %69 = load i64, ptr %7, align 8, !tbaa !28
  %70 = call ptr @realloc(ptr noundef %68, i64 noundef %69) #15
  store ptr %70, ptr %9, align 8, !tbaa !27
  %71 = icmp eq ptr %70, null
  br i1 %71, label %72, label %73

72:                                               ; preds = %64
  store i32 0, ptr %3, align 4
  store i32 1, ptr %8, align 4
  br label %78

73:                                               ; preds = %64
  %74 = load ptr, ptr %9, align 8, !tbaa !27
  %75 = load ptr, ptr %4, align 8, !tbaa !7
  %76 = getelementptr inbounds nuw %struct.FLAC__StreamMetadata, ptr %75, i32 0, i32 3
  %77 = getelementptr inbounds nuw %struct.FLAC__StreamMetadata_SeekTable, ptr %76, i32 0, i32 1
  store ptr %74, ptr %77, align 8, !tbaa !16
  store i32 0, ptr %8, align 4
  br label %78

78:                                               ; preds = %73, %72
  call void @llvm.lifetime.end.p0(i64 8, ptr %9) #12
  %79 = load i32, ptr %8, align 4
  switch i32 %79, label %125 [
    i32 0, label %80
  ]

80:                                               ; preds = %78
  br label %81

81:                                               ; preds = %80, %56
  %82 = load i64, ptr %7, align 8, !tbaa !28
  %83 = load i64, ptr %6, align 8, !tbaa !28
  %84 = icmp ugt i64 %82, %83
  br i1 %84, label %85, label %124

85:                                               ; preds = %81
  call void @llvm.lifetime.start.p0(i64 4, ptr %10) #12
  %86 = load ptr, ptr %4, align 8, !tbaa !7
  %87 = getelementptr inbounds nuw %struct.FLAC__StreamMetadata, ptr %86, i32 0, i32 3
  %88 = getelementptr inbounds nuw %struct.FLAC__StreamMetadata_SeekTable, ptr %87, i32 0, i32 0
  %89 = load i32, ptr %88, align 8, !tbaa !16
  store i32 %89, ptr %10, align 4, !tbaa !3
  br label %90

90:                                               ; preds = %120, %85
  %91 = load i32, ptr %10, align 4, !tbaa !3
  %92 = load i32, ptr %5, align 4, !tbaa !3
  %93 = icmp ult i32 %91, %92
  br i1 %93, label %94, label %123

94:                                               ; preds = %90
  %95 = load i64, ptr @FLAC__STREAM_METADATA_SEEKPOINT_PLACEHOLDER, align 8, !tbaa !28
  %96 = load ptr, ptr %4, align 8, !tbaa !7
  %97 = getelementptr inbounds nuw %struct.FLAC__StreamMetadata, ptr %96, i32 0, i32 3
  %98 = getelementptr inbounds nuw %struct.FLAC__StreamMetadata_SeekTable, ptr %97, i32 0, i32 1
  %99 = load ptr, ptr %98, align 8, !tbaa !16
  %100 = load i32, ptr %10, align 4, !tbaa !3
  %101 = zext i32 %100 to i64
  %102 = getelementptr inbounds nuw %struct.FLAC__StreamMetadata_SeekPoint, ptr %99, i64 %101
  %103 = getelementptr inbounds nuw %struct.FLAC__StreamMetadata_SeekPoint, ptr %102, i32 0, i32 0
  store i64 %95, ptr %103, align 8, !tbaa !49
  %104 = load ptr, ptr %4, align 8, !tbaa !7
  %105 = getelementptr inbounds nuw %struct.FLAC__StreamMetadata, ptr %104, i32 0, i32 3
  %106 = getelementptr inbounds nuw %struct.FLAC__StreamMetadata_SeekTable, ptr %105, i32 0, i32 1
  %107 = load ptr, ptr %106, align 8, !tbaa !16
  %108 = load i32, ptr %10, align 4, !tbaa !3
  %109 = zext i32 %108 to i64
  %110 = getelementptr inbounds nuw %struct.FLAC__StreamMetadata_SeekPoint, ptr %107, i64 %109
  %111 = getelementptr inbounds nuw %struct.FLAC__StreamMetadata_SeekPoint, ptr %110, i32 0, i32 1
  store i64 0, ptr %111, align 8, !tbaa !51
  %112 = load ptr, ptr %4, align 8, !tbaa !7
  %113 = getelementptr inbounds nuw %struct.FLAC__StreamMetadata, ptr %112, i32 0, i32 3
  %114 = getelementptr inbounds nuw %struct.FLAC__StreamMetadata_SeekTable, ptr %113, i32 0, i32 1
  %115 = load ptr, ptr %114, align 8, !tbaa !16
  %116 = load i32, ptr %10, align 4, !tbaa !3
  %117 = zext i32 %116 to i64
  %118 = getelementptr inbounds nuw %struct.FLAC__StreamMetadata_SeekPoint, ptr %115, i64 %117
  %119 = getelementptr inbounds nuw %struct.FLAC__StreamMetadata_SeekPoint, ptr %118, i32 0, i32 2
  store i32 0, ptr %119, align 8, !tbaa !52
  br label %120

120:                                              ; preds = %94
  %121 = load i32, ptr %10, align 4, !tbaa !3
  %122 = add i32 %121, 1
  store i32 %122, ptr %10, align 4, !tbaa !3
  br label %90, !llvm.loop !84

123:                                              ; preds = %90
  call void @llvm.lifetime.end.p0(i64 4, ptr %10) #12
  br label %124

124:                                              ; preds = %123, %81
  store i32 0, ptr %8, align 4
  br label %125

125:                                              ; preds = %124, %78, %52
  call void @llvm.lifetime.end.p0(i64 8, ptr %7) #12
  call void @llvm.lifetime.end.p0(i64 8, ptr %6) #12
  %126 = load i32, ptr %8, align 4
  switch i32 %126, label %136 [
    i32 0, label %127
    i32 1, label %134
  ]

127:                                              ; preds = %125
  br label %128

128:                                              ; preds = %127, %38
  %129 = load i32, ptr %5, align 4, !tbaa !3
  %130 = load ptr, ptr %4, align 8, !tbaa !7
  %131 = getelementptr inbounds nuw %struct.FLAC__StreamMetadata, ptr %130, i32 0, i32 3
  %132 = getelementptr inbounds nuw %struct.FLAC__StreamMetadata_SeekTable, ptr %131, i32 0, i32 0
  store i32 %129, ptr %132, align 8, !tbaa !16
  %133 = load ptr, ptr %4, align 8, !tbaa !7
  call void @seektable_calculate_length_(ptr noundef %133)
  store i32 1, ptr %3, align 4
  br label %134

134:                                              ; preds = %128, %125, %36, %28, %18
  %135 = load i32, ptr %3, align 4
  ret i32 %135

136:                                              ; preds = %125
  unreachable
}