; Function Attrs: nounwind sspstrong uwtable
define range(i32 0, 2) i32 @FLAC__metadata_object_seektable_resize_points(ptr noundef captures(none) %0, i32 noundef %1) local_unnamed_addr #5 {
  %3 = zext i32 %1 to i64
  %4 = mul nuw nsw i64 %3, 18
  %5 = load i32, ptr @FLAC__STREAM_METADATA_LENGTH_LEN, align 4, !tbaa !9
  %6 = shl nuw i32 1, %5
  %7 = zext i32 %6 to i64
  %.not = icmp samesign ult i64 %4, %7
  br i1 %.not, label %8, label %.critedge

8:                                                ; preds = %2
  %9 = getelementptr inbounds nuw i8, ptr %0, i64 16
  %10 = getelementptr inbounds nuw i8, ptr %0, i64 24
  %11 = load ptr, ptr %10, align 8, !tbaa !13
  %12 = icmp eq ptr %11, null
  br i1 %12, label %13, label %22

13:                                               ; preds = %8
  %14 = icmp eq i32 %1, 0
  br i1 %14, label %.critedge, label %15

15:                                               ; preds = %13
  %16 = tail call ptr @safe_malloc_mul_2op_p(i64 noundef %3, i64 noundef 24) #31
  %.not.i = icmp eq ptr %16, null
  br i1 %.not.i, label %seekpoint_array_new_.exit.thread, label %.preheader.i

seekpoint_array_new_.exit.thread:                 ; preds = %15
  store ptr null, ptr %10, align 8, !tbaa !13
  br label %.critedge

.preheader.i:                                     ; preds = %15
  %17 = load i64, ptr @FLAC__STREAM_METADATA_SEEKPOINT_PLACEHOLDER, align 8, !tbaa !76
  br label %18

18:                                               ; preds = %18, %.preheader.i
  %indvars.iv.i = phi i64 [ 0, %.preheader.i ], [ %indvars.iv.next.i, %18 ]
  %19 = getelementptr inbounds nuw %struct.FLAC__StreamMetadata_SeekPoint, ptr %16, i64 %indvars.iv.i
  store i64 %17, ptr %19, align 8, !tbaa !44
  %20 = getelementptr inbounds nuw i8, ptr %19, i64 8
  store i64 0, ptr %20, align 8, !tbaa !46
  %21 = getelementptr inbounds nuw i8, ptr %19, i64 16
  store i32 0, ptr %21, align 8, !tbaa !47
  %indvars.iv.next.i = add nuw nsw i64 %indvars.iv.i, 1
  %exitcond.not.i = icmp eq i64 %indvars.iv.next.i, %3
  br i1 %exitcond.not.i, label %seekpoint_array_new_.exit, label %18, !llvm.loop !77

seekpoint_array_new_.exit:                        ; preds = %18
  store ptr %16, ptr %10, align 8, !tbaa !13
  br label %.critedge.thread

22:                                               ; preds = %8
  %23 = load i32, ptr %9, align 8, !tbaa !13
  %24 = mul nuw nsw i64 %3, 24
  %25 = icmp ugt i32 %1, 178956970
  br i1 %25, label %.critedge, label %26

26:                                               ; preds = %22
  %27 = icmp eq i32 %1, 0
  br i1 %27, label %28, label %29

28:                                               ; preds = %26
  tail call void @free(ptr noundef nonnull %11) #31
  br label %31

29:                                               ; preds = %26
  %30 = tail call ptr @realloc(ptr noundef nonnull %11, i64 noundef %24) #32
  %.not39 = icmp eq ptr %30, null
  br i1 %.not39, label %.critedge, label %31

31:                                               ; preds = %29, %28
  %storemerge = phi ptr [ null, %28 ], [ %30, %29 ]
  store ptr %storemerge, ptr %10, align 8, !tbaa !13
  %32 = icmp ugt i32 %1, %23
  br i1 %32, label %33, label %.critedge.thread

33:                                               ; preds = %31
  %34 = load i32, ptr %9, align 8, !tbaa !13
  %35 = icmp ult i32 %34, %1
  br i1 %35, label %.lr.ph, label %.critedge.thread

.lr.ph:                                           ; preds = %33
  %36 = load i64, ptr @FLAC__STREAM_METADATA_SEEKPOINT_PLACEHOLDER, align 8, !tbaa !76
  %37 = zext nneg i32 %34 to i64
  br label %38

38:                                               ; preds = %.lr.ph, %38
  %indvars.iv = phi i64 [ %37, %.lr.ph ], [ %indvars.iv.next, %38 ]
  %39 = load ptr, ptr %10, align 8, !tbaa !13
  %40 = getelementptr inbounds nuw %struct.FLAC__StreamMetadata_SeekPoint, ptr %39, i64 %indvars.iv
  store i64 %36, ptr %40, align 8, !tbaa !44
  %41 = load ptr, ptr %10, align 8, !tbaa !13
  %42 = getelementptr inbounds nuw %struct.FLAC__StreamMetadata_SeekPoint, ptr %41, i64 %indvars.iv, i32 1
  store i64 0, ptr %42, align 8, !tbaa !46
  %43 = load ptr, ptr %10, align 8, !tbaa !13
  %44 = getelementptr inbounds nuw %struct.FLAC__StreamMetadata_SeekPoint, ptr %43, i64 %indvars.iv, i32 2
  store i32 0, ptr %44, align 8, !tbaa !47
  %indvars.iv.next = add nuw nsw i64 %indvars.iv, 1
  %exitcond.not = icmp eq i64 %indvars.iv.next, %3
  br i1 %exitcond.not, label %.critedge.thread, label %38, !llvm.loop !78

.critedge.thread:                                 ; preds = %38, %33, %31, %seekpoint_array_new_.exit
  store i32 %1, ptr %9, align 8, !tbaa !13
  %45 = mul i32 %1, 18
  %46 = getelementptr inbounds nuw i8, ptr %0, i64 8
  store i32 %45, ptr %46, align 8, !tbaa !8
  br label %.critedge

.critedge:                                        ; preds = %22, %29, %seekpoint_array_new_.exit.thread, %13, %2, %.critedge.thread
  %.032 = phi i32 [ 1, %.critedge.thread ], [ 0, %2 ], [ 1, %13 ], [ 0, %seekpoint_array_new_.exit.thread ], [ 0, %29 ], [ 0, %22 ]
  ret i32 %.032
}